; ModuleID = 'source-C-CXX/44/1388.c'
source_filename = "source-C-CXX/44/1388.c"
target datalayout = "e-m:e-p270:32:32-p271:32:32-p272:64:64-i64:64-f80:128-n8:16:32:64-S128"
target triple = "x86_64-pc-linux-gnu"

@.str = private unnamed_addr constant [5 x i8] c"%s%s\00", align 1
@.str.1 = private unnamed_addr constant [4 x i8] c"%d\0A\00", align 1

; Function Attrs: nofree nounwind sspstrong uwtable
define dso_local void @main() local_unnamed_addr #0 {
  %1 = alloca [50 x i8], align 16
  %2 = alloca [50 x i8], align 16
  %3 = alloca [50 x i8], align 16
  %4 = getelementptr inbounds [50 x i8], [50 x i8]* %3, i64 0, i64 0
  %5 = getelementptr inbounds [50 x i8], [50 x i8]* %1, i64 0, i64 0
  call void @llvm.lifetime.start.p0i8(i64 50, i8* nonnull %5) #7
  call void @llvm.memset.p0i8.i64(i8* noundef nonnull align 16 dereferenceable(50) %5, i8 0, i64 50, i1 false)
  %6 = getelementptr inbounds [50 x i8], [50 x i8]* %2, i64 0, i64 0
  call void @llvm.lifetime.start.p0i8(i64 50, i8* nonnull %6) #7
  call void @llvm.memset.p0i8.i64(i8* noundef nonnull align 16 dereferenceable(50) %6, i8 0, i64 50, i1 false)
  %7 = getelementptr inbounds [50 x i8], [50 x i8]* %3, i64 0, i64 0
  call void @llvm.lifetime.start.p0i8(i64 50, i8* nonnull %7) #7
  call void @llvm.memset.p0i8.i64(i8* noundef nonnull align 16 dereferenceable(50) %7, i8 0, i64 50, i1 false)
  %8 = call i32 (i8*, ...) @__isoc99_scanf(i8* getelementptr inbounds ([5 x i8], [5 x i8]* @.str, i64 0, i64 0), i8* nonnull %5, i8* nonnull %6)
  %9 = call i64 @strlen(i8* noundef nonnull %5) #8
  %10 = trunc i64 %9 to i32
  %11 = call i64 @strlen(i8* noundef nonnull %6) #8
  %12 = trunc i64 %11 to i32
  %13 = icmp slt i32 %12, %10
  br i1 %13, label %42, label %14

14:                                               ; preds = %0
  %15 = add i64 %11, 1
  %16 = sub i64 %15, %9
  %17 = and i64 %16, 4294967295
  %18 = icmp sgt i32 %10, 0
  br label %19

19:                                               ; preds = %14, %39
  %20 = phi i64 [ 0, %14 ], [ %22, %39 ]
  %21 = phi i32 [ 0, %14 ], [ %40, %39 ]
  %22 = add nuw nsw i64 %20, 1
  br i1 %18, label %23, label %34

23:                                               ; preds = %19
  %24 = add i64 %9, %20
  %25 = trunc i64 %24 to i32
  %26 = trunc i64 %22 to i32
  %27 = call i32 @llvm.smax.i32(i32 %25, i32 %26)
  %28 = trunc i64 %20 to i32
  %29 = xor i32 %28, -1
  %30 = add i32 %27, %29
  %31 = zext i32 %30 to i64
  %32 = add nuw nsw i64 %31, 1
  %33 = getelementptr [50 x i8], [50 x i8]* %2, i64 0, i64 %20
  call void @llvm.memcpy.p0i8.p0i8.i64(i8* noundef nonnull align 16 %4, i8* noundef nonnull align 1 dereferenceable(1) %33, i64 %32, i1 false)
  br label %34

34:                                               ; preds = %23, %19
  %35 = call i32 @strcmp(i8* noundef nonnull %5, i8* noundef nonnull %7) #8
  %36 = icmp eq i32 %35, 0
  br i1 %36, label %37, label %39

37:                                               ; preds = %34
  %38 = call i32 (i8*, ...) @printf(i8* nonnull dereferenceable(1) getelementptr inbounds ([4 x i8], [4 x i8]* @.str.1, i64 0, i64 0), i32 %21)
  br label %42

39:                                               ; preds = %34
  %40 = add nuw nsw i32 %21, 1
  %41 = icmp eq i64 %22, %17
  br i1 %41, label %42, label %19, !llvm.loop !5

42:                                               ; preds = %39, %0, %37
  call void @llvm.lifetime.end.p0i8(i64 50, i8* nonnull %7) #7
  call void @llvm.lifetime.end.p0i8(i64 50, i8* nonnull %6) #7
  call void @llvm.lifetime.end.p0i8(i64 50, i8* nonnull %5) #7
  ret void
}

; Function Attrs: argmemonly mustprogress nofree nosync nounwind willreturn
declare void @llvm.lifetime.start.p0i8(i64 immarg, i8* nocapture) #1

; Function Attrs: argmemonly mustprogress nofree nounwind willreturn writeonly
declare void @llvm.memset.p0i8.i64(i8* nocapture writeonly, i8, i64, i1 immarg) #2

; Function Attrs: nofree nounwind
declare noundef i32 @__isoc99_scanf(i8* nocapture noundef readonly, ...) local_unnamed_addr #3

; Function Attrs: argmemonly mustprogress nofree nounwind readonly willreturn
declare i64 @strlen(i8* nocapture) local_unnamed_addr #4

; Function Attrs: argmemonly mustprogress nofree nounwind readonly willreturn
declare i32 @strcmp(i8* nocapture, i8* nocapture) local_unnamed_addr #4

; Function Attrs: nofree nounwind
declare noundef i32 @printf(i8* nocapture noundef readonly, ...) local_unnamed_addr #3

; Function Attrs: argmemonly mustprogress nofree nosync nounwind willreturn
declare void @llvm.lifetime.end.p0i8(i64 immarg, i8* nocapture) #1

; Function Attrs: nofree nosync nounwind readnone speculatable willreturn
declare i32 @llvm.smax.i32(i32, i32) #5

; Function Attrs: argmemonly nofree nounwind willreturn
declare void @llvm.memcpy.p0i8.p0i8.i64(i8* noalias nocapture writeonly, i8* noalias nocapture readonly, i64, i1 immarg) #6


!llvm.module.flags = !{!0, !1, !2, !3}
!llvm.ident = !{!4}

!0 = !{i32 1, !"wchar_size", i32 4}
!1 = !{i32 7, !"PIC Level", i32 2}
!2 = !{i32 7, !"PIE Level", i32 2}
!3 = !{i32 7, !"uwtable", i32 1}
!4 = !{!"clang version 13.0.0"}
!5 = distinct !{!5, !6}
!6 = !{!"llvm.loop.mustprogress"}
